;AS.C V0.07, Source: TE.S, Output: TE.LST, TE.COM

0000                ;inc 0  dec 1  //BAS.BAT, AS TE, NAS.BAT     
0000                ;1=IMM, 2=REG, 3=ADR, 4=MEM   
0000                org 256             ;NASM
0100 F6 D0          not al              ;F6 D0       
0102 08 00          VA dw 8             ;08 00  
0104 F7 D1          not cx              ;F7 D1 
0106 F7 D2          not DX              ;F7 D2      
0108 F6 97 02 01    not byte [bx+258]   ;F6 97 02 01   
010C F6 11          not byte [bx+di]    ;F6 11       
010E F6 51 FC       not byte [bx+di-4]  ;F6 51 FC     
0111 F6 16 02 01    not byte [VA]       ;F6 16 01 00 
0115 F7 16 02 01    not word [VA]       ;F7 16 01 00     
0119 F7 D9          neg cx              ;F7 D9        
011B F6 9F 02 01    neg byte [bx+258]   ;F6 9F 02 01   
011F F6 19          neg byte [bx+di]    ;F6 19       
0121 F6 59 FC       neg byte [bx+di-4]  ;F6 59 FC     
0124 F6 1E 02 01    neg byte [VA]       ;F6 1E 02 00 
0128 F7 1E 02 01    neg word [VA]       ;F7 1E 02 00 
012C F6 E0          mul al              ;F6 E0       
012E F7 E0          mul ax              ;F7 E0       
0130 F7 E1          mul cx              ;F7 E1       
0132 F6 A7 02 01    mul byte [bx+258]   ;F6 A7 02 01   
0136 F6 21          mul byte [bx+di]    ;F6 21       
0138 F6 61 FC       mul byte [bx+di-4]  ;F6 61 FC     
013B F6 26 02 01    mul byte [VA]       ;F6 26 02 00 
013F F7 26 02 01    mul word [VA]       ;F7 26 02 00 
0143 F6 F0          div al              ;F6 F0       
0145 F7 F0          div ax              ;F7 F0       
0147 F7 F1          div cx              ;F7 F1       
0149 F6 B7 02 01    div byte [bx+258]   ;F6 B7 02 01   
014D F6 31          div byte [bx+di]    ;F6 31       
014F F6 71 FC       div byte [bx+di-4]  ;F6 71 FC     
0152 F6 36 02 01    div byte [VA]       ;F6 36 02 00 
0156 F7 36 02 01    div word [VA]       ;F7 36 02 00 
015A F6 F8          idiv al             ;F6 F8       
015C F7 F8          idiv ax             ;F7 F8       
015E F7 F9          idiv cx             ;F7 F9       
0160 F6 BF 02 01    idiv byte [bx+258]  ;F6 BF 02 01   
0164 F6 39          idiv byte [bx+di]   ;F6 39       
0166 F6 79 FC       idiv byte [bx+di-4] ;F6 79 FC     
0169 F6 3E 02 01    idiv byte [VA]      ;F6 3E 02 00 
016D F7 3E 02 01    idiv word [VA]      ;F7 3E 02 00 
0171                ;acc, rm           
0171 F6 E8          imul al             ;F6 E8    
0173 F7 E8          imul ax             ;F7 E8    
0175 F7 E9          imul cx             ;F7 E9    
0177 F6 AF 02 01    imul byte [bx+258]  ;F6 AF 02 01
017B F6 29          imul byte [bx+di]   ;F6 29    
017D F6 69 FC       imul byte [bx+di-4] ;F6 69 FC  
0180 F6 2E 02 01    imul byte [VA]      ;F6 2E 01 00 
0184 F7 2E 02 01    imul word [VA]      ;F7 2E 01 00 
0188                
0188 C4 01          les ax,  [bx+di]    ;C4 01
018A 0F B2 0E 02 01    lss cx, [VA]        ;0F B2 0E [0400]  
018F C4 49 FC       les cx, [bx+di-4]   ;C4 49 FC 
0192 0F B5 01       lgs ax, [bx+di]     ;0F B5 01
0195 0F B5 81 02 01    lgs ax, [VA+bx+di]  ;0F B5 81 01 00
019A                ;mov al, [bp-4]     ;8A 46 FC
019A                ;mov al, [VB+bx]    ;8A 87 06 00           
019A                
019A 04 04          add al, 4           ;04 04
019C                ;add al, 259      ;;;04 03 bounds
019C 83 C0 04       add ax, 4           ;05 04 00 ;83 C0 04 XXXXXXXX
019F 05 03 01       add ax, 259         ;05 03 01
01A2 0C 04          or  al, 4           ;0C 04         
01A4 15 03 01       adc ax, 259         ;15 03 01     
01A7 80 C0 04       add cl, 4           ;80 C1 04
01AA 83 C0 04       add cx, 4           ;83 C1 04 
01AD 81 C0 03 01    add cx, 259         ;81 C1 03 01
01B1 83 C0 02       add  sp, 2          ;83 C4 02 
01B4 80 06 02 01 04    add byte [VA], 4    ;80 06 02 01 04
01B9 83 06 02 01 04    add word [VA], 4    ;83 06 02 01 04  
01BE 83 06 05 01 04    add word [VA+3],4   ;83 06 05 00 04   
01C3                ;add word [VA+di]
01C3 02 41 FC       add al, [bx+di-4]   ;02 41 FC    
01C6 01 C3          add bx, ax          ;01 C3
01C8 01 D8          add ax, bx          ;01 D8
01CA 02 07          add al, [bx]        ;02 07
01CC 03 07          add ax, [bx]        ;03 07
01CE 03 0F          add cx, [bx]        ;03 0F
01D0 01 0F          add [bx], cx        ;01 0F
01D2 00 00          add [bx+si], al     ;00 00
01D4 00 01          add [bx+di], al     ;00 01
01D6 01 01          add [bx+di], ax     ;01 01
01D8 02 01          add al, [bx+di]     ;02 01
01DA 03 01          add ax, [bx+di]     ;03 01
;END Errors: 0, COM file 220 bytes.